target datalayout = "e-m:e-p270:32:32-p271:32:32-p272:64:64-i64:64-i128:128-f80:128-n8:16:32:64-S128"
target triple = "x86_64-pc-linux-gnu"

%struct.FunctionCallInfoBaseData = type { ptr, ptr, ptr, i32, i8, i16, [0 x %struct.NullableDatum] }
%struct.NullableDatum = type { i64, i8 }
%struct.FormData_pg_enum = type { i32, i32, float, %struct.nameData }
%struct.nameData = type { [64 x i8] }
%struct.HeapTupleData = type { i32, %struct.ItemPointerData, i32, ptr }
%struct.ItemPointerData = type { %struct.BlockIdData, i16 }
%struct.BlockIdData = type { i16, i16 }
%struct.HeapTupleHeaderData = type { %union.anon, %struct.ItemPointerData, i16, i16, i8, [0 x i8] }
%union.anon = type { %struct.HeapTupleFields }
%struct.HeapTupleFields = type { i32, i32, %union.anon.0 }
%union.anon.0 = type { i32 }
%struct.FmgrInfo = type { ptr, i32, i16, i8, i8, i8, ptr, ptr, ptr }

@.str.1 = private unnamed_addr constant [7 x i8] c"enum.c\00", align 1
@.str.2 = private unnamed_addr constant [36 x i8] c"invalid internal value for enum: %u\00", align 1
@__func__.enum_cmp_internal = private unnamed_addr constant [18 x i8] c"enum_cmp_internal\00", align 1

; Function Attrs: inlinehint nounwind uwtable
define internal ptr @GETSTRUCT(ptr noundef %0) #2 {
  %2 = alloca ptr, align 8
  store ptr %0, ptr %2, align 8
  %3 = load ptr, ptr %2, align 8
  %4 = getelementptr inbounds nuw %struct.HeapTupleData, ptr %3, i32 0, i32 3
  %5 = load ptr, ptr %4, align 8
  %6 = load ptr, ptr %2, align 8
  %7 = getelementptr inbounds nuw %struct.HeapTupleData, ptr %6, i32 0, i32 3
  %8 = load ptr, ptr %7, align 8
  %9 = getelementptr inbounds nuw %struct.HeapTupleHeaderData, ptr %8, i32 0, i32 4
  %10 = load i8, ptr %9, align 2
  %11 = zext i8 %10 to i32
  %12 = sext i32 %11 to i64
  %13 = getelementptr inbounds i8, ptr %5, i64 %12
  ret ptr %13
}

; Function Attrs: inlinehint nounwind uwtable
define internal i64 @ObjectIdGetDatum(i32 noundef %0) #2 {
  %2 = alloca i32, align 4
  store i32 %0, ptr %2, align 4
  %3 = load i32, ptr %2, align 4
  %4 = zext i32 %3 to i64
  ret i64 %4
}

; Function Attrs: nounwind uwtable
define internal i32 @enum_cmp_internal(i32 noundef %0, i32 noundef %1, ptr noundef %2) #0 {
  %4 = alloca i32, align 4
  %5 = alloca i32, align 4
  %6 = alloca i32, align 4
  %7 = alloca ptr, align 8
  %8 = alloca ptr, align 8
  %9 = alloca i32, align 4
  %10 = alloca ptr, align 8
  %11 = alloca ptr, align 8
  %12 = alloca i32, align 4
  store i32 %0, ptr %5, align 4
  store i32 %1, ptr %6, align 4
  store ptr %2, ptr %7, align 8
  call void @llvm.lifetime.start.p0(i64 8, ptr %8) #6
  %13 = load i32, ptr %5, align 4
  %14 = load i32, ptr %6, align 4
  %15 = icmp eq i32 %13, %14
  br i1 %15, label %16, label %17

16:                                               ; preds = %3
  store i32 0, ptr %4, align 4
  store i32 1, ptr %9, align 4
  br label %77

17:                                               ; preds = %3
  %18 = load i32, ptr %5, align 4
  %19 = and i32 %18, 1
  %20 = icmp eq i32 %19, 0
  br i1 %20, label %21, label %31

21:                                               ; preds = %17
  %22 = load i32, ptr %6, align 4
  %23 = and i32 %22, 1
  %24 = icmp eq i32 %23, 0
  br i1 %24, label %25, label %31

25:                                               ; preds = %21
  %26 = load i32, ptr %5, align 4
  %27 = load i32, ptr %6, align 4
  %28 = icmp ult i32 %26, %27
  br i1 %28, label %29, label %30

29:                                               ; preds = %25
  store i32 -1, ptr %4, align 4
  store i32 1, ptr %9, align 4
  br label %77

30:                                               ; preds = %25
  store i32 1, ptr %4, align 4
  store i32 1, ptr %9, align 4
  br label %77

31:                                               ; preds = %21, %17
  %32 = load ptr, ptr %7, align 8
  %33 = getelementptr inbounds nuw %struct.FunctionCallInfoBaseData, ptr %32, i32 0, i32 0
  %34 = load ptr, ptr %33, align 8
  %35 = getelementptr inbounds nuw %struct.FmgrInfo, ptr %34, i32 0, i32 6
  %36 = load ptr, ptr %35, align 8
  store ptr %36, ptr %8, align 8
  %37 = load ptr, ptr %8, align 8
  %38 = icmp eq ptr %37, null
  br i1 %38, label %39, label %72

39:                                               ; preds = %31
  call void @llvm.lifetime.start.p0(i64 8, ptr %10) #6
  call void @llvm.lifetime.start.p0(i64 8, ptr %11) #6
  call void @llvm.lifetime.start.p0(i64 4, ptr %12) #6
  %40 = load i32, ptr %5, align 4
  %41 = call i64 @ObjectIdGetDatum(i32 noundef %40)
  %42 = call ptr @SearchSysCache1(i32 noundef 23, i64 noundef %41)
  store ptr %42, ptr %10, align 8
  %43 = load ptr, ptr %10, align 8
  %44 = icmp ne ptr %43, null
  br i1 %44, label %58, label %45

45:                                               ; preds = %39
  br label %46

46:                                               ; preds = %45
  br i1 true, label %47, label %49

47:                                               ; preds = %46
  %48 = call zeroext i1 @errstart_cold(i32 noundef 21, ptr noundef null) #8
  br i1 %48, label %51, label %55

49:                                               ; preds = %46
  %50 = call zeroext i1 @errstart(i32 noundef 21, ptr noundef null)
  br i1 %50, label %51, label %55

51:                                               ; preds = %49, %47
  %52 = call i32 @errcode(i32 noundef 50462850)
  %53 = load i32, ptr %5, align 4
  %54 = call i32 (ptr, ...) @errmsg(ptr noundef @.str.2, i32 noundef %53)
  call void @errfinish(ptr noundef @.str.1, i32 noundef 292, ptr noundef @__func__.enum_cmp_internal)
  br label %55

55:                                               ; preds = %51, %49, %47
  unreachable

56:                                               ; No predecessors!
  br label %57

57:                                               ; preds = %56
  br label %58

58:                                               ; preds = %57, %39
  %59 = load ptr, ptr %10, align 8
  %60 = call ptr @GETSTRUCT(ptr noundef %59)
  store ptr %60, ptr %11, align 8
  %61 = load ptr, ptr %11, align 8
  %62 = getelementptr inbounds nuw %struct.FormData_pg_enum, ptr %61, i32 0, i32 1
  %63 = load i32, ptr %62, align 4
  store i32 %63, ptr %12, align 4
  %64 = load ptr, ptr %10, align 8
  call void @ReleaseSysCache(ptr noundef %64)
  %65 = load i32, ptr %12, align 4
  %66 = call ptr @lookup_type_cache(i32 noundef %65, i32 noundef 0)
  store ptr %66, ptr %8, align 8
  %67 = load ptr, ptr %8, align 8
  %68 = load ptr, ptr %7, align 8
  %69 = getelementptr inbounds nuw %struct.FunctionCallInfoBaseData, ptr %68, i32 0, i32 0
  %70 = load ptr, ptr %69, align 8
  %71 = getelementptr inbounds nuw %struct.FmgrInfo, ptr %70, i32 0, i32 6
  store ptr %67, ptr %71, align 8
  call void @llvm.lifetime.end.p0(i64 4, ptr %12) #6
  call void @llvm.lifetime.end.p0(i64 8, ptr %11) #6
  call void @llvm.lifetime.end.p0(i64 8, ptr %10) #6
  br label %72

72:                                               ; preds = %58, %31
  %73 = load ptr, ptr %8, align 8
  %74 = load i32, ptr %5, align 4
  %75 = load i32, ptr %6, align 4
  %76 = call i32 @compare_values_of_enum(ptr noundef %73, i32 noundef %74, i32 noundef %75)
  store i32 %76, ptr %4, align 4
  store i32 1, ptr %9, align 4
  br label %77

77:                                               ; preds = %72, %30, %29, %16
  call void @llvm.lifetime.end.p0(i64 8, ptr %8) #6
  %78 = load i32, ptr %4, align 4
  ret i32 %78
}