; Function Attrs: nounwind uwtable
define internal fastcc i32 @enum_cmp_internal(i32 noundef %0, i32 noundef %1, ptr noundef readonly captures(none) %2) unnamed_addr #0 {
  %4 = icmp eq i32 %0, %1
  br i1 %4, label %35, label %5

5:                                                ; preds = %3
  %6 = or i32 %1, %0
  %7 = and i32 %6, 1
  %or.cond = icmp eq i32 %7, 0
  br i1 %or.cond, label %8, label %10

8:                                                ; preds = %5
  %9 = icmp ult i32 %0, %1
  %. = select i1 %9, i32 -1, i32 1
  br label %35

10:                                               ; preds = %5
  %11 = load ptr, ptr %2, align 8
  %12 = getelementptr inbounds nuw i8, ptr %11, i64 24
  %13 = load ptr, ptr %12, align 8
  %14 = icmp eq ptr %13, null
  br i1 %14, label %15, label %33

15:                                               ; preds = %10
  %16 = zext i32 %0 to i64
  %17 = tail call ptr @SearchSysCache1(i32 noundef 23, i64 noundef %16) #8
  %.not = icmp eq ptr %17, null
  br i1 %.not, label %18, label %22

18:                                               ; preds = %15
  %19 = tail call zeroext i1 @errstart_cold(i32 noundef 21, ptr noundef null) #9
  tail call void @llvm.assume(i1 %19)
  %20 = tail call i32 @errcode(i32 noundef 50462850) #8
  %21 = tail call i32 (ptr, ...) @errmsg(ptr noundef nonnull @.str.2, i32 noundef %0) #8
  tail call void @errfinish(ptr noundef nonnull @.str.1, i32 noundef 292, ptr noundef nonnull @__func__.enum_cmp_internal) #8
  unreachable

22:                                               ; preds = %15
  %23 = getelementptr i8, ptr %17, i64 16
  %.val = load ptr, ptr %23, align 8
  %24 = getelementptr inbounds nuw i8, ptr %.val, i64 22
  %25 = load i8, ptr %24, align 2
  %26 = zext i8 %25 to i64
  %27 = getelementptr inbounds nuw i8, ptr %.val, i64 %26
  %28 = getelementptr inbounds nuw i8, ptr %27, i64 4
  %29 = load i32, ptr %28, align 4
  tail call void @ReleaseSysCache(ptr noundef nonnull %17) #8
  %30 = tail call ptr @lookup_type_cache(i32 noundef %29, i32 noundef 0) #8
  %31 = load ptr, ptr %2, align 8
  %32 = getelementptr inbounds nuw i8, ptr %31, i64 24
  store ptr %30, ptr %32, align 8
  br label %33

33:                                               ; preds = %22, %10
  %.020 = phi ptr [ %30, %22 ], [ %13, %10 ]
  %34 = tail call i32 @compare_values_of_enum(ptr noundef %.020, i32 noundef %0, i32 noundef %1) #8
  br label %35

35:                                               ; preds = %8, %3, %33
  %.0 = phi i32 [ %34, %33 ], [ 0, %3 ], [ %., %8 ]
  ret i32 %.0
}